; Function Attrs: nounwind uwtable
define hidden noalias noundef ptr @BN_new() local_unnamed_addr #0 {
  %calloc = tail call dereferenceable_or_null(24) ptr @calloc(i64 1, i64 24)
  %1 = icmp eq ptr %calloc, null
  br i1 %1, label %2, label %3

2:                                                ; preds = %0
  tail call void @ERR_put_error(i32 noundef 3, i32 noundef 0, i32 noundef 65, ptr noundef nonnull @.str, i32 noundef 72) #14
  br label %5

3:                                                ; preds = %0
  %4 = getelementptr inbounds nuw i8, ptr %calloc, i64 20
  store i32 1, ptr %4, align 4, !tbaa !6
  br label %5

5:                                                ; preds = %3, %2
  ret ptr %calloc
}